ARM GAS  C:\Users\pc\AppData\Local\Temp\ccOqYPV2.s 			page 1


   1              		.cpu cortex-m4
   2              		.arch armv7e-m
   3              		.fpu fpv4-sp-d16
   4              		.eabi_attribute 27, 1
   5              		.eabi_attribute 28, 1
   6              		.eabi_attribute 20, 1
   7              		.eabi_attribute 21, 1
   8              		.eabi_attribute 23, 3
   9              		.eabi_attribute 24, 1
  10              		.eabi_attribute 25, 1
  11              		.eabi_attribute 26, 1
  12              		.eabi_attribute 30, 1
  13              		.eabi_attribute 34, 1
  14              		.eabi_attribute 18, 4
  15              		.file	"main.c"
  16              		.text
  17              	.Ltext0:
  18              		.cfi_sections	.debug_frame
  19              		.file 1 "Core/Src/main.c"
  20              		.section	.text.MX_GPIO_Init,"ax",%progbits
  21              		.align	1
  22              		.syntax unified
  23              		.thumb
  24              		.thumb_func
  26              	MX_GPIO_Init:
  27              	.LFB135:
   1:Core/Src/main.c **** /* USER CODE BEGIN Header */
   2:Core/Src/main.c **** /**
   3:Core/Src/main.c ****   ******************************************************************************
   4:Core/Src/main.c ****   * @file           : main.c
   5:Core/Src/main.c ****   * @brief          : Main program body
   6:Core/Src/main.c ****   ******************************************************************************
   7:Core/Src/main.c ****   * @attention
   8:Core/Src/main.c ****   *
   9:Core/Src/main.c ****   * Copyright (c) 2023 STMicroelectronics.
  10:Core/Src/main.c ****   * All rights reserved.
  11:Core/Src/main.c ****   *
  12:Core/Src/main.c ****   * This software is licensed under terms that can be found in the LICENSE file
  13:Core/Src/main.c ****   * in the root directory of this software component.
  14:Core/Src/main.c ****   * If no LICENSE file comes with this software, it is provided AS-IS.
  15:Core/Src/main.c ****   *
  16:Core/Src/main.c ****   ******************************************************************************
  17:Core/Src/main.c ****   */
  18:Core/Src/main.c **** /* USER CODE END Header */
  19:Core/Src/main.c **** /* Includes ------------------------------------------------------------------*/
  20:Core/Src/main.c **** #include "main.h"
  21:Core/Src/main.c **** 
  22:Core/Src/main.c **** /* Private includes ----------------------------------------------------------*/
  23:Core/Src/main.c **** /* USER CODE BEGIN Includes */
  24:Core/Src/main.c **** 
  25:Core/Src/main.c **** /* USER CODE END Includes */
  26:Core/Src/main.c **** 
  27:Core/Src/main.c **** /* Private typedef -----------------------------------------------------------*/
  28:Core/Src/main.c **** /* USER CODE BEGIN PTD */
  29:Core/Src/main.c **** 
  30:Core/Src/main.c **** /* USER CODE END PTD */
  31:Core/Src/main.c **** 
ARM GAS  C:\Users\pc\AppData\Local\Temp\ccOqYPV2.s 			page 2


  32:Core/Src/main.c **** /* Private define ------------------------------------------------------------*/
  33:Core/Src/main.c **** /* USER CODE BEGIN PD */
  34:Core/Src/main.c **** 
  35:Core/Src/main.c **** /* USER CODE END PD */
  36:Core/Src/main.c **** 
  37:Core/Src/main.c **** /* Private macro -------------------------------------------------------------*/
  38:Core/Src/main.c **** /* USER CODE BEGIN PM */
  39:Core/Src/main.c **** 
  40:Core/Src/main.c **** /* USER CODE END PM */
  41:Core/Src/main.c **** 
  42:Core/Src/main.c **** /* Private variables ---------------------------------------------------------*/
  43:Core/Src/main.c **** UART_HandleTypeDef huart1;
  44:Core/Src/main.c **** UART_HandleTypeDef huart2;
  45:Core/Src/main.c **** 
  46:Core/Src/main.c **** /* USER CODE BEGIN PV */
  47:Core/Src/main.c **** uint16_t RX_buffer[70];
  48:Core/Src/main.c **** uint8_t rx_index = 0;
  49:Core/Src/main.c **** char TX_message[] = "Hello from STM32\n";
  50:Core/Src/main.c **** char Receive_Message, null;
  51:Core/Src/main.c **** /* USER CODE END PV */
  52:Core/Src/main.c **** 
  53:Core/Src/main.c **** /* Private function prototypes -----------------------------------------------*/
  54:Core/Src/main.c **** void SystemClock_Config(void);
  55:Core/Src/main.c **** static void MX_GPIO_Init(void);
  56:Core/Src/main.c **** static void MX_USART1_UART_Init(void);
  57:Core/Src/main.c **** static void MX_USART2_UART_Init(void);
  58:Core/Src/main.c **** /* USER CODE BEGIN PFP */
  59:Core/Src/main.c **** 
  60:Core/Src/main.c **** /* USER CODE END PFP */
  61:Core/Src/main.c **** 
  62:Core/Src/main.c **** /* Private user code ---------------------------------------------------------*/
  63:Core/Src/main.c **** /* USER CODE BEGIN 0 */
  64:Core/Src/main.c **** void HAL_UART_RxCpltCallback(UART_HandleTypeDef *huart)
  65:Core/Src/main.c **** {
  66:Core/Src/main.c ****    if (huart->Instance == USART1) {
  67:Core/Src/main.c ****     // UART2 received data callback
  68:Core/Src/main.c ****     if (rx_index < sizeof(RX_buffer) - 1) {
  69:Core/Src/main.c ****       RX_buffer[rx_index++] = huart->Instance->DR; // Store received character
  70:Core/Src/main.c ****     }
  71:Core/Src/main.c **** 
  72:Core/Src/main.c ****     if (RX_buffer[rx_index - 1] == '\n') {
  73:Core/Src/main.c ****       // End of message, process the received data
  74:Core/Src/main.c ****       RX_buffer[rx_index] = '\0'; // Null-terminate the received message
  75:Core/Src/main.c ****       int xValue, yValue;
  76:Core/Src/main.c **** 
  77:Core/Src/main.c ****       HAL_UART_Transmit(&huart2, (uint8_t *)RX_buffer, rx_index, HAL_MAX_DELAY);
  78:Core/Src/main.c ****       // if (sscanf(RX_buffer, "X:%d,Y:%d", &xValue, &yValue) == 2) {
  79:Core/Src/main.c ****         // // Process joystick data and control motors
  80:Core/Src/main.c ****         // // processJoystickData(xValue, yValue);
  81:Core/Src/main.c **** 
  82:Core/Src/main.c ****       // }
  83:Core/Src/main.c ****       // Reset the buffer for the next message
  84:Core/Src/main.c ****       rx_index = 0;
  85:Core/Src/main.c ****     }
  86:Core/Src/main.c **** 
  87:Core/Src/main.c ****     HAL_UART_Receive_IT(&huart1, (uint8_t *)&RX_buffer[rx_index], 1); // Enable UART interrupt for 
  88:Core/Src/main.c ****   }
ARM GAS  C:\Users\pc\AppData\Local\Temp\ccOqYPV2.s 			page 3


  89:Core/Src/main.c **** }
  90:Core/Src/main.c **** /* USER CODE END 0 */
  91:Core/Src/main.c **** 
  92:Core/Src/main.c **** /**
  93:Core/Src/main.c ****   * @brief  The application entry point.
  94:Core/Src/main.c ****   * @retval int
  95:Core/Src/main.c ****   */
  96:Core/Src/main.c **** int main(void)
  97:Core/Src/main.c **** {
  98:Core/Src/main.c ****   /* USER CODE BEGIN 1 */
  99:Core/Src/main.c **** 
 100:Core/Src/main.c ****   /* USER CODE END 1 */
 101:Core/Src/main.c **** 
 102:Core/Src/main.c ****   /* MCU Configuration--------------------------------------------------------*/
 103:Core/Src/main.c **** 
 104:Core/Src/main.c ****   /* Reset of all peripherals, Initializes the Flash interface and the Systick. */
 105:Core/Src/main.c ****   HAL_Init();
 106:Core/Src/main.c **** 
 107:Core/Src/main.c ****   /* USER CODE BEGIN Init */
 108:Core/Src/main.c **** 
 109:Core/Src/main.c ****   /* USER CODE END Init */
 110:Core/Src/main.c **** 
 111:Core/Src/main.c ****   /* Configure the system clock */
 112:Core/Src/main.c ****   SystemClock_Config();
 113:Core/Src/main.c **** 
 114:Core/Src/main.c ****   /* USER CODE BEGIN SysInit */
 115:Core/Src/main.c **** 
 116:Core/Src/main.c ****   /* USER CODE END SysInit */
 117:Core/Src/main.c **** 
 118:Core/Src/main.c ****   /* Initialize all configured peripherals */
 119:Core/Src/main.c ****   MX_GPIO_Init();
 120:Core/Src/main.c ****   MX_USART1_UART_Init();
 121:Core/Src/main.c ****   MX_USART2_UART_Init();
 122:Core/Src/main.c ****   /* USER CODE BEGIN 2 */
 123:Core/Src/main.c **** 
 124:Core/Src/main.c ****   /* USER CODE END 2 */
 125:Core/Src/main.c **** 
 126:Core/Src/main.c ****   /* Infinite loop */
 127:Core/Src/main.c ****   /* USER CODE BEGIN WHILE */
 128:Core/Src/main.c ****   HAL_UART_Transmit(&huart1, TX_message, sizeof(TX_message),10);
 129:Core/Src/main.c ****   HAL_UART_Receive_IT(&huart1, (uint8_t*)&RX_buffer[rx_index], sizeof(RX_buffer));
 130:Core/Src/main.c ****   while (1)
 131:Core/Src/main.c ****   {
 132:Core/Src/main.c ****     /* USER CODE END WHILE */
 133:Core/Src/main.c **** 
 134:Core/Src/main.c ****     /* USER CODE BEGIN 3 */
 135:Core/Src/main.c ****   }
 136:Core/Src/main.c ****   /* USER CODE END 3 */
 137:Core/Src/main.c **** }
 138:Core/Src/main.c **** 
 139:Core/Src/main.c **** /**
 140:Core/Src/main.c ****   * @brief System Clock Configuration
 141:Core/Src/main.c ****   * @retval None
 142:Core/Src/main.c ****   */
 143:Core/Src/main.c **** void SystemClock_Config(void)
 144:Core/Src/main.c **** {
 145:Core/Src/main.c ****   RCC_OscInitTypeDef RCC_OscInitStruct = {0};
ARM GAS  C:\Users\pc\AppData\Local\Temp\ccOqYPV2.s 			page 4


 146:Core/Src/main.c ****   RCC_ClkInitTypeDef RCC_ClkInitStruct = {0};
 147:Core/Src/main.c **** 
 148:Core/Src/main.c ****   /** Configure the main internal regulator output voltage
 149:Core/Src/main.c ****   */
 150:Core/Src/main.c ****   __HAL_RCC_PWR_CLK_ENABLE();
 151:Core/Src/main.c ****   __HAL_PWR_VOLTAGESCALING_CONFIG(PWR_REGULATOR_VOLTAGE_SCALE1);
 152:Core/Src/main.c **** 
 153:Core/Src/main.c ****   /** Initializes the RCC Oscillators according to the specified parameters
 154:Core/Src/main.c ****   * in the RCC_OscInitTypeDef structure.
 155:Core/Src/main.c ****   */
 156:Core/Src/main.c ****   RCC_OscInitStruct.OscillatorType = RCC_OSCILLATORTYPE_HSE;
 157:Core/Src/main.c ****   RCC_OscInitStruct.HSEState = RCC_HSE_ON;
 158:Core/Src/main.c ****   RCC_OscInitStruct.PLL.PLLState = RCC_PLL_ON;
 159:Core/Src/main.c ****   RCC_OscInitStruct.PLL.PLLSource = RCC_PLLSOURCE_HSE;
 160:Core/Src/main.c ****   RCC_OscInitStruct.PLL.PLLM = 4;
 161:Core/Src/main.c ****   RCC_OscInitStruct.PLL.PLLN = 180;
 162:Core/Src/main.c ****   RCC_OscInitStruct.PLL.PLLP = RCC_PLLP_DIV2;
 163:Core/Src/main.c ****   RCC_OscInitStruct.PLL.PLLQ = 2;
 164:Core/Src/main.c ****   RCC_OscInitStruct.PLL.PLLR = 2;
 165:Core/Src/main.c ****   if (HAL_RCC_OscConfig(&RCC_OscInitStruct) != HAL_OK)
 166:Core/Src/main.c ****   {
 167:Core/Src/main.c ****     Error_Handler();
 168:Core/Src/main.c ****   }
 169:Core/Src/main.c **** 
 170:Core/Src/main.c ****   /** Activate the Over-Drive mode
 171:Core/Src/main.c ****   */
 172:Core/Src/main.c ****   if (HAL_PWREx_EnableOverDrive() != HAL_OK)
 173:Core/Src/main.c ****   {
 174:Core/Src/main.c ****     Error_Handler();
 175:Core/Src/main.c ****   }
 176:Core/Src/main.c **** 
 177:Core/Src/main.c ****   /** Initializes the CPU, AHB and APB buses clocks
 178:Core/Src/main.c ****   */
 179:Core/Src/main.c ****   RCC_ClkInitStruct.ClockType = RCC_CLOCKTYPE_HCLK|RCC_CLOCKTYPE_SYSCLK
 180:Core/Src/main.c ****                               |RCC_CLOCKTYPE_PCLK1|RCC_CLOCKTYPE_PCLK2;
 181:Core/Src/main.c ****   RCC_ClkInitStruct.SYSCLKSource = RCC_SYSCLKSOURCE_PLLCLK;
 182:Core/Src/main.c ****   RCC_ClkInitStruct.AHBCLKDivider = RCC_SYSCLK_DIV1;
 183:Core/Src/main.c ****   RCC_ClkInitStruct.APB1CLKDivider = RCC_HCLK_DIV4;
 184:Core/Src/main.c ****   RCC_ClkInitStruct.APB2CLKDivider = RCC_HCLK_DIV2;
 185:Core/Src/main.c **** 
 186:Core/Src/main.c ****   if (HAL_RCC_ClockConfig(&RCC_ClkInitStruct, FLASH_LATENCY_5) != HAL_OK)
 187:Core/Src/main.c ****   {
 188:Core/Src/main.c ****     Error_Handler();
 189:Core/Src/main.c ****   }
 190:Core/Src/main.c **** }
 191:Core/Src/main.c **** 
 192:Core/Src/main.c **** /**
 193:Core/Src/main.c ****   * @brief USART1 Initialization Function
 194:Core/Src/main.c ****   * @param None
 195:Core/Src/main.c ****   * @retval None
 196:Core/Src/main.c ****   */
 197:Core/Src/main.c **** static void MX_USART1_UART_Init(void)
 198:Core/Src/main.c **** {
 199:Core/Src/main.c **** 
 200:Core/Src/main.c ****   /* USER CODE BEGIN USART1_Init 0 */
 201:Core/Src/main.c **** 
 202:Core/Src/main.c ****   /* USER CODE END USART1_Init 0 */
ARM GAS  C:\Users\pc\AppData\Local\Temp\ccOqYPV2.s 			page 5


 203:Core/Src/main.c **** 
 204:Core/Src/main.c ****   /* USER CODE BEGIN USART1_Init 1 */
 205:Core/Src/main.c **** 
 206:Core/Src/main.c ****   /* USER CODE END USART1_Init 1 */
 207:Core/Src/main.c ****   huart1.Instance = USART1;
 208:Core/Src/main.c ****   huart1.Init.BaudRate = 115200;
 209:Core/Src/main.c ****   huart1.Init.WordLength = UART_WORDLENGTH_8B;
 210:Core/Src/main.c ****   huart1.Init.StopBits = UART_STOPBITS_1;
 211:Core/Src/main.c ****   huart1.Init.Parity = UART_PARITY_NONE;
 212:Core/Src/main.c ****   huart1.Init.Mode = UART_MODE_TX_RX;
 213:Core/Src/main.c ****   huart1.Init.HwFlowCtl = UART_HWCONTROL_NONE;
 214:Core/Src/main.c ****   huart1.Init.OverSampling = UART_OVERSAMPLING_16;
 215:Core/Src/main.c ****   if (HAL_UART_Init(&huart1) != HAL_OK)
 216:Core/Src/main.c ****   {
 217:Core/Src/main.c ****     Error_Handler();
 218:Core/Src/main.c ****   }
 219:Core/Src/main.c ****   /* USER CODE BEGIN USART1_Init 2 */
 220:Core/Src/main.c **** 
 221:Core/Src/main.c ****   /* USER CODE END USART1_Init 2 */
 222:Core/Src/main.c **** 
 223:Core/Src/main.c **** }
 224:Core/Src/main.c **** 
 225:Core/Src/main.c **** /**
 226:Core/Src/main.c ****   * @brief USART2 Initialization Function
 227:Core/Src/main.c ****   * @param None
 228:Core/Src/main.c ****   * @retval None
 229:Core/Src/main.c ****   */
 230:Core/Src/main.c **** static void MX_USART2_UART_Init(void)
 231:Core/Src/main.c **** {
 232:Core/Src/main.c **** 
 233:Core/Src/main.c ****   /* USER CODE BEGIN USART2_Init 0 */
 234:Core/Src/main.c **** 
 235:Core/Src/main.c ****   /* USER CODE END USART2_Init 0 */
 236:Core/Src/main.c **** 
 237:Core/Src/main.c ****   /* USER CODE BEGIN USART2_Init 1 */
 238:Core/Src/main.c **** 
 239:Core/Src/main.c ****   /* USER CODE END USART2_Init 1 */
 240:Core/Src/main.c ****   huart2.Instance = USART2;
 241:Core/Src/main.c ****   huart2.Init.BaudRate = 115200;
 242:Core/Src/main.c ****   huart2.Init.WordLength = UART_WORDLENGTH_8B;
 243:Core/Src/main.c ****   huart2.Init.StopBits = UART_STOPBITS_1;
 244:Core/Src/main.c ****   huart2.Init.Parity = UART_PARITY_NONE;
 245:Core/Src/main.c ****   huart2.Init.Mode = UART_MODE_TX_RX;
 246:Core/Src/main.c ****   huart2.Init.HwFlowCtl = UART_HWCONTROL_NONE;
 247:Core/Src/main.c ****   huart2.Init.OverSampling = UART_OVERSAMPLING_16;
 248:Core/Src/main.c ****   if (HAL_UART_Init(&huart2) != HAL_OK)
 249:Core/Src/main.c ****   {
 250:Core/Src/main.c ****     Error_Handler();
 251:Core/Src/main.c ****   }
 252:Core/Src/main.c ****   /* USER CODE BEGIN USART2_Init 2 */
 253:Core/Src/main.c **** 
 254:Core/Src/main.c ****   /* USER CODE END USART2_Init 2 */
 255:Core/Src/main.c **** 
 256:Core/Src/main.c **** }
 257:Core/Src/main.c **** 
 258:Core/Src/main.c **** /**
 259:Core/Src/main.c ****   * @brief GPIO Initialization Function
ARM GAS  C:\Users\pc\AppData\Local\Temp\ccOqYPV2.s 			page 6


 260:Core/Src/main.c ****   * @param None
 261:Core/Src/main.c ****   * @retval None
 262:Core/Src/main.c ****   */
 263:Core/Src/main.c **** static void MX_GPIO_Init(void)
 264:Core/Src/main.c **** {
  28              		.loc 1 264 1 view -0
  29              		.cfi_startproc
  30              		@ args = 0, pretend = 0, frame = 32
  31              		@ frame_needed = 0, uses_anonymous_args = 0
  32 0000 30B5     		push	{r4, r5, lr}
  33              	.LCFI0:
  34              		.cfi_def_cfa_offset 12
  35              		.cfi_offset 4, -12
  36              		.cfi_offset 5, -8
  37              		.cfi_offset 14, -4
  38 0002 89B0     		sub	sp, sp, #36
  39              	.LCFI1:
  40              		.cfi_def_cfa_offset 48
 265:Core/Src/main.c ****   GPIO_InitTypeDef GPIO_InitStruct = {0};
  41              		.loc 1 265 3 view .LVU1
  42              		.loc 1 265 20 is_stmt 0 view .LVU2
  43 0004 0024     		movs	r4, #0
  44 0006 0394     		str	r4, [sp, #12]
  45 0008 0494     		str	r4, [sp, #16]
  46 000a 0594     		str	r4, [sp, #20]
  47 000c 0694     		str	r4, [sp, #24]
  48 000e 0794     		str	r4, [sp, #28]
 266:Core/Src/main.c **** /* USER CODE BEGIN MX_GPIO_Init_1 */
 267:Core/Src/main.c **** /* USER CODE END MX_GPIO_Init_1 */
 268:Core/Src/main.c **** 
 269:Core/Src/main.c ****   /* GPIO Ports Clock Enable */
 270:Core/Src/main.c ****   __HAL_RCC_GPIOC_CLK_ENABLE();
  49              		.loc 1 270 3 is_stmt 1 view .LVU3
  50              	.LBB4:
  51              		.loc 1 270 3 view .LVU4
  52 0010 0094     		str	r4, [sp]
  53              		.loc 1 270 3 view .LVU5
  54 0012 184B     		ldr	r3, .L3
  55 0014 1A6B     		ldr	r2, [r3, #48]
  56 0016 42F00402 		orr	r2, r2, #4
  57 001a 1A63     		str	r2, [r3, #48]
  58              		.loc 1 270 3 view .LVU6
  59 001c 1A6B     		ldr	r2, [r3, #48]
  60 001e 02F00402 		and	r2, r2, #4
  61 0022 0092     		str	r2, [sp]
  62              		.loc 1 270 3 view .LVU7
  63 0024 009A     		ldr	r2, [sp]
  64              	.LBE4:
  65              		.loc 1 270 3 view .LVU8
 271:Core/Src/main.c ****   __HAL_RCC_GPIOH_CLK_ENABLE();
  66              		.loc 1 271 3 view .LVU9
  67              	.LBB5:
  68              		.loc 1 271 3 view .LVU10
  69 0026 0194     		str	r4, [sp, #4]
  70              		.loc 1 271 3 view .LVU11
  71 0028 1A6B     		ldr	r2, [r3, #48]
  72 002a 42F08002 		orr	r2, r2, #128
ARM GAS  C:\Users\pc\AppData\Local\Temp\ccOqYPV2.s 			page 7


  73 002e 1A63     		str	r2, [r3, #48]
  74              		.loc 1 271 3 view .LVU12
  75 0030 1A6B     		ldr	r2, [r3, #48]
  76 0032 02F08002 		and	r2, r2, #128
  77 0036 0192     		str	r2, [sp, #4]
  78              		.loc 1 271 3 view .LVU13
  79 0038 019A     		ldr	r2, [sp, #4]
  80              	.LBE5:
  81              		.loc 1 271 3 view .LVU14
 272:Core/Src/main.c ****   __HAL_RCC_GPIOA_CLK_ENABLE();
  82              		.loc 1 272 3 view .LVU15
  83              	.LBB6:
  84              		.loc 1 272 3 view .LVU16
  85 003a 0294     		str	r4, [sp, #8]
  86              		.loc 1 272 3 view .LVU17
  87 003c 1A6B     		ldr	r2, [r3, #48]
  88 003e 42F00102 		orr	r2, r2, #1
  89 0042 1A63     		str	r2, [r3, #48]
  90              		.loc 1 272 3 view .LVU18
  91 0044 1B6B     		ldr	r3, [r3, #48]
  92 0046 03F00103 		and	r3, r3, #1
  93 004a 0293     		str	r3, [sp, #8]
  94              		.loc 1 272 3 view .LVU19
  95 004c 029B     		ldr	r3, [sp, #8]
  96              	.LBE6:
  97              		.loc 1 272 3 view .LVU20
 273:Core/Src/main.c **** 
 274:Core/Src/main.c ****   /*Configure GPIO pin Output Level */
 275:Core/Src/main.c ****   HAL_GPIO_WritePin(GPIOA, GPIO_PIN_5, GPIO_PIN_RESET);
  98              		.loc 1 275 3 view .LVU21
  99 004e 0A4D     		ldr	r5, .L3+4
 100 0050 2246     		mov	r2, r4
 101 0052 2021     		movs	r1, #32
 102 0054 2846     		mov	r0, r5
 103 0056 FFF7FEFF 		bl	HAL_GPIO_WritePin
 104              	.LVL0:
 276:Core/Src/main.c **** 
 277:Core/Src/main.c ****   /*Configure GPIO pin : PA5 */
 278:Core/Src/main.c ****   GPIO_InitStruct.Pin = GPIO_PIN_5;
 105              		.loc 1 278 3 view .LVU22
 106              		.loc 1 278 23 is_stmt 0 view .LVU23
 107 005a 2023     		movs	r3, #32
 108 005c 0393     		str	r3, [sp, #12]
 279:Core/Src/main.c ****   GPIO_InitStruct.Mode = GPIO_MODE_OUTPUT_PP;
 109              		.loc 1 279 3 is_stmt 1 view .LVU24
 110              		.loc 1 279 24 is_stmt 0 view .LVU25
 111 005e 0123     		movs	r3, #1
 112 0060 0493     		str	r3, [sp, #16]
 280:Core/Src/main.c ****   GPIO_InitStruct.Pull = GPIO_NOPULL;
 113              		.loc 1 280 3 is_stmt 1 view .LVU26
 114              		.loc 1 280 24 is_stmt 0 view .LVU27
 115 0062 0594     		str	r4, [sp, #20]
 281:Core/Src/main.c ****   GPIO_InitStruct.Speed = GPIO_SPEED_FREQ_LOW;
 116              		.loc 1 281 3 is_stmt 1 view .LVU28
 117              		.loc 1 281 25 is_stmt 0 view .LVU29
 118 0064 0694     		str	r4, [sp, #24]
 282:Core/Src/main.c ****   HAL_GPIO_Init(GPIOA, &GPIO_InitStruct);
ARM GAS  C:\Users\pc\AppData\Local\Temp\ccOqYPV2.s 			page 8


 119              		.loc 1 282 3 is_stmt 1 view .LVU30
 120 0066 03A9     		add	r1, sp, #12
 121 0068 2846     		mov	r0, r5
 122 006a FFF7FEFF 		bl	HAL_GPIO_Init
 123              	.LVL1:
 283:Core/Src/main.c **** 
 284:Core/Src/main.c **** /* USER CODE BEGIN MX_GPIO_Init_2 */
 285:Core/Src/main.c **** /* USER CODE END MX_GPIO_Init_2 */
 286:Core/Src/main.c **** }
 124              		.loc 1 286 1 is_stmt 0 view .LVU31
 125 006e 09B0     		add	sp, sp, #36
 126              	.LCFI2:
 127              		.cfi_def_cfa_offset 12
 128              		@ sp needed
 129 0070 30BD     		pop	{r4, r5, pc}
 130              	.L4:
 131 0072 00BF     		.align	2
 132              	.L3:
 133 0074 00380240 		.word	1073887232
 134 0078 00000240 		.word	1073872896
 135              		.cfi_endproc
 136              	.LFE135:
 138              		.section	.text.HAL_UART_RxCpltCallback,"ax",%progbits
 139              		.align	1
 140              		.global	HAL_UART_RxCpltCallback
 141              		.syntax unified
 142              		.thumb
 143              		.thumb_func
 145              	HAL_UART_RxCpltCallback:
 146              	.LVL2:
 147              	.LFB130:
  65:Core/Src/main.c ****    if (huart->Instance == USART1) {
 148              		.loc 1 65 1 is_stmt 1 view -0
 149              		.cfi_startproc
 150              		@ args = 0, pretend = 0, frame = 0
 151              		@ frame_needed = 0, uses_anonymous_args = 0
  66:Core/Src/main.c ****     // UART2 received data callback
 152              		.loc 1 66 4 view .LVU33
  66:Core/Src/main.c ****     // UART2 received data callback
 153              		.loc 1 66 13 is_stmt 0 view .LVU34
 154 0000 0368     		ldr	r3, [r0]
  66:Core/Src/main.c ****     // UART2 received data callback
 155              		.loc 1 66 7 view .LVU35
 156 0002 174A     		ldr	r2, .L15
 157 0004 9342     		cmp	r3, r2
 158 0006 00D0     		beq	.L13
 159 0008 7047     		bx	lr
 160              	.L13:
  65:Core/Src/main.c ****    if (huart->Instance == USART1) {
 161              		.loc 1 65 1 view .LVU36
 162 000a 10B5     		push	{r4, lr}
 163              	.LCFI3:
 164              		.cfi_def_cfa_offset 8
 165              		.cfi_offset 4, -8
 166              		.cfi_offset 14, -4
  68:Core/Src/main.c ****       RX_buffer[rx_index++] = huart->Instance->DR; // Store received character
 167              		.loc 1 68 5 is_stmt 1 view .LVU37
ARM GAS  C:\Users\pc\AppData\Local\Temp\ccOqYPV2.s 			page 9


  68:Core/Src/main.c ****       RX_buffer[rx_index++] = huart->Instance->DR; // Store received character
 168              		.loc 1 68 18 is_stmt 0 view .LVU38
 169 000c 154A     		ldr	r2, .L15+4
 170 000e 1278     		ldrb	r2, [r2]	@ zero_extendqisi2
  68:Core/Src/main.c ****       RX_buffer[rx_index++] = huart->Instance->DR; // Store received character
 171              		.loc 1 68 8 view .LVU39
 172 0010 8A2A     		cmp	r2, #138
 173 0012 06D8     		bhi	.L7
  69:Core/Src/main.c ****     }
 174              		.loc 1 69 7 is_stmt 1 view .LVU40
  69:Core/Src/main.c ****     }
 175              		.loc 1 69 46 is_stmt 0 view .LVU41
 176 0014 5968     		ldr	r1, [r3, #4]
  69:Core/Src/main.c ****     }
 177              		.loc 1 69 25 view .LVU42
 178 0016 501C     		adds	r0, r2, #1
 179              	.LVL3:
  69:Core/Src/main.c ****     }
 180              		.loc 1 69 25 view .LVU43
 181 0018 124B     		ldr	r3, .L15+4
 182 001a 1870     		strb	r0, [r3]
  69:Core/Src/main.c ****     }
 183              		.loc 1 69 29 view .LVU44
 184 001c 124B     		ldr	r3, .L15+8
 185 001e 23F81210 		strh	r1, [r3, r2, lsl #1]	@ movhi
 186              	.L7:
  72:Core/Src/main.c ****       // End of message, process the received data
 187              		.loc 1 72 5 is_stmt 1 view .LVU45
  72:Core/Src/main.c ****       // End of message, process the received data
 188              		.loc 1 72 28 is_stmt 0 view .LVU46
 189 0022 104B     		ldr	r3, .L15+4
 190 0024 1A78     		ldrb	r2, [r3]	@ zero_extendqisi2
 191 0026 511E     		subs	r1, r2, #1
  72:Core/Src/main.c ****       // End of message, process the received data
 192              		.loc 1 72 18 view .LVU47
 193 0028 0F4B     		ldr	r3, .L15+8
 194 002a 33F81130 		ldrh	r3, [r3, r1, lsl #1]
  72:Core/Src/main.c ****       // End of message, process the received data
 195              		.loc 1 72 8 view .LVU48
 196 002e 0A2B     		cmp	r3, #10
 197 0030 09D0     		beq	.L14
 198              	.L8:
  87:Core/Src/main.c ****   }
 199              		.loc 1 87 5 is_stmt 1 view .LVU49
  87:Core/Src/main.c ****   }
 200              		.loc 1 87 55 is_stmt 0 view .LVU50
 201 0032 0C4B     		ldr	r3, .L15+4
 202 0034 1978     		ldrb	r1, [r3]	@ zero_extendqisi2
  87:Core/Src/main.c ****   }
 203              		.loc 1 87 5 view .LVU51
 204 0036 0122     		movs	r2, #1
 205 0038 0B4B     		ldr	r3, .L15+8
 206 003a 03EB4101 		add	r1, r3, r1, lsl #1
 207 003e 0B48     		ldr	r0, .L15+12
 208 0040 FFF7FEFF 		bl	HAL_UART_Receive_IT
 209              	.LVL4:
  89:Core/Src/main.c **** /* USER CODE END 0 */
ARM GAS  C:\Users\pc\AppData\Local\Temp\ccOqYPV2.s 			page 10


 210              		.loc 1 89 1 view .LVU52
 211 0044 10BD     		pop	{r4, pc}
 212              	.L14:
 213              	.LBB7:
  74:Core/Src/main.c ****       int xValue, yValue;
 214              		.loc 1 74 7 is_stmt 1 view .LVU53
  74:Core/Src/main.c ****       int xValue, yValue;
 215              		.loc 1 74 27 is_stmt 0 view .LVU54
 216 0046 0849     		ldr	r1, .L15+8
 217 0048 0024     		movs	r4, #0
 218 004a 21F81240 		strh	r4, [r1, r2, lsl #1]	@ movhi
  75:Core/Src/main.c **** 
 219              		.loc 1 75 7 is_stmt 1 view .LVU55
  77:Core/Src/main.c ****       // if (sscanf(RX_buffer, "X:%d,Y:%d", &xValue, &yValue) == 2) {
 220              		.loc 1 77 7 view .LVU56
 221 004e 4FF0FF33 		mov	r3, #-1
 222 0052 0748     		ldr	r0, .L15+16
 223 0054 FFF7FEFF 		bl	HAL_UART_Transmit
 224              	.LVL5:
  84:Core/Src/main.c ****     }
 225              		.loc 1 84 7 view .LVU57
  84:Core/Src/main.c ****     }
 226              		.loc 1 84 16 is_stmt 0 view .LVU58
 227 0058 024B     		ldr	r3, .L15+4
 228 005a 1C70     		strb	r4, [r3]
 229 005c E9E7     		b	.L8
 230              	.L16:
 231 005e 00BF     		.align	2
 232              	.L15:
 233 0060 00100140 		.word	1073811456
 234 0064 00000000 		.word	rx_index
 235 0068 00000000 		.word	RX_buffer
 236 006c 00000000 		.word	huart1
 237 0070 00000000 		.word	huart2
 238              	.LBE7:
 239              		.cfi_endproc
 240              	.LFE130:
 242              		.section	.text.Error_Handler,"ax",%progbits
 243              		.align	1
 244              		.global	Error_Handler
 245              		.syntax unified
 246              		.thumb
 247              		.thumb_func
 249              	Error_Handler:
 250              	.LFB136:
 287:Core/Src/main.c **** 
 288:Core/Src/main.c **** /* USER CODE BEGIN 4 */
 289:Core/Src/main.c **** /* USER CODE END 4 */
 290:Core/Src/main.c **** 
 291:Core/Src/main.c **** /**
 292:Core/Src/main.c ****   * @brief  This function is executed in case of error occurrence.
 293:Core/Src/main.c ****   * @retval None
 294:Core/Src/main.c ****   */
 295:Core/Src/main.c **** void Error_Handler(void)
 296:Core/Src/main.c **** {
 251              		.loc 1 296 1 is_stmt 1 view -0
 252              		.cfi_startproc
ARM GAS  C:\Users\pc\AppData\Local\Temp\ccOqYPV2.s 			page 11


 253              		@ Volatile: function does not return.
 254              		@ args = 0, pretend = 0, frame = 0
 255              		@ frame_needed = 0, uses_anonymous_args = 0
 256              		@ link register save eliminated.
 297:Core/Src/main.c ****   /* USER CODE BEGIN Error_Handler_Debug */
 298:Core/Src/main.c ****   /* User can add his own implementation to report the HAL error return state */
 299:Core/Src/main.c ****   __disable_irq();
 257              		.loc 1 299 3 view .LVU60
 258              	.LBB8:
 259              	.LBI8:
 260              		.file 2 "Drivers/CMSIS/Include/cmsis_gcc.h"
   1:Drivers/CMSIS/Include/cmsis_gcc.h **** /**************************************************************************//**
   2:Drivers/CMSIS/Include/cmsis_gcc.h ****  * @file     cmsis_gcc.h
   3:Drivers/CMSIS/Include/cmsis_gcc.h ****  * @brief    CMSIS compiler GCC header file
   4:Drivers/CMSIS/Include/cmsis_gcc.h ****  * @version  V5.0.4
   5:Drivers/CMSIS/Include/cmsis_gcc.h ****  * @date     09. April 2018
   6:Drivers/CMSIS/Include/cmsis_gcc.h ****  ******************************************************************************/
   7:Drivers/CMSIS/Include/cmsis_gcc.h **** /*
   8:Drivers/CMSIS/Include/cmsis_gcc.h ****  * Copyright (c) 2009-2018 Arm Limited. All rights reserved.
   9:Drivers/CMSIS/Include/cmsis_gcc.h ****  *
  10:Drivers/CMSIS/Include/cmsis_gcc.h ****  * SPDX-License-Identifier: Apache-2.0
  11:Drivers/CMSIS/Include/cmsis_gcc.h ****  *
  12:Drivers/CMSIS/Include/cmsis_gcc.h ****  * Licensed under the Apache License, Version 2.0 (the License); you may
  13:Drivers/CMSIS/Include/cmsis_gcc.h ****  * not use this file except in compliance with the License.
  14:Drivers/CMSIS/Include/cmsis_gcc.h ****  * You may obtain a copy of the License at
  15:Drivers/CMSIS/Include/cmsis_gcc.h ****  *
  16:Drivers/CMSIS/Include/cmsis_gcc.h ****  * www.apache.org/licenses/LICENSE-2.0
  17:Drivers/CMSIS/Include/cmsis_gcc.h ****  *
  18:Drivers/CMSIS/Include/cmsis_gcc.h ****  * Unless required by applicable law or agreed to in writing, software
  19:Drivers/CMSIS/Include/cmsis_gcc.h ****  * distributed under the License is distributed on an AS IS BASIS, WITHOUT
  20:Drivers/CMSIS/Include/cmsis_gcc.h ****  * WARRANTIES OR CONDITIONS OF ANY KIND, either express or implied.
  21:Drivers/CMSIS/Include/cmsis_gcc.h ****  * See the License for the specific language governing permissions and
  22:Drivers/CMSIS/Include/cmsis_gcc.h ****  * limitations under the License.
  23:Drivers/CMSIS/Include/cmsis_gcc.h ****  */
  24:Drivers/CMSIS/Include/cmsis_gcc.h **** 
  25:Drivers/CMSIS/Include/cmsis_gcc.h **** #ifndef __CMSIS_GCC_H
  26:Drivers/CMSIS/Include/cmsis_gcc.h **** #define __CMSIS_GCC_H
  27:Drivers/CMSIS/Include/cmsis_gcc.h **** 
  28:Drivers/CMSIS/Include/cmsis_gcc.h **** /* ignore some GCC warnings */
  29:Drivers/CMSIS/Include/cmsis_gcc.h **** #pragma GCC diagnostic push
  30:Drivers/CMSIS/Include/cmsis_gcc.h **** #pragma GCC diagnostic ignored "-Wsign-conversion"
  31:Drivers/CMSIS/Include/cmsis_gcc.h **** #pragma GCC diagnostic ignored "-Wconversion"
  32:Drivers/CMSIS/Include/cmsis_gcc.h **** #pragma GCC diagnostic ignored "-Wunused-parameter"
  33:Drivers/CMSIS/Include/cmsis_gcc.h **** 
  34:Drivers/CMSIS/Include/cmsis_gcc.h **** /* Fallback for __has_builtin */
  35:Drivers/CMSIS/Include/cmsis_gcc.h **** #ifndef __has_builtin
  36:Drivers/CMSIS/Include/cmsis_gcc.h ****   #define __has_builtin(x) (0)
  37:Drivers/CMSIS/Include/cmsis_gcc.h **** #endif
  38:Drivers/CMSIS/Include/cmsis_gcc.h **** 
  39:Drivers/CMSIS/Include/cmsis_gcc.h **** /* CMSIS compiler specific defines */
  40:Drivers/CMSIS/Include/cmsis_gcc.h **** #ifndef   __ASM
  41:Drivers/CMSIS/Include/cmsis_gcc.h ****   #define __ASM                                  __asm
  42:Drivers/CMSIS/Include/cmsis_gcc.h **** #endif
  43:Drivers/CMSIS/Include/cmsis_gcc.h **** #ifndef   __INLINE
  44:Drivers/CMSIS/Include/cmsis_gcc.h ****   #define __INLINE                               inline
  45:Drivers/CMSIS/Include/cmsis_gcc.h **** #endif
  46:Drivers/CMSIS/Include/cmsis_gcc.h **** #ifndef   __STATIC_INLINE
ARM GAS  C:\Users\pc\AppData\Local\Temp\ccOqYPV2.s 			page 12


  47:Drivers/CMSIS/Include/cmsis_gcc.h ****   #define __STATIC_INLINE                        static inline
  48:Drivers/CMSIS/Include/cmsis_gcc.h **** #endif
  49:Drivers/CMSIS/Include/cmsis_gcc.h **** #ifndef   __STATIC_FORCEINLINE                 
  50:Drivers/CMSIS/Include/cmsis_gcc.h ****   #define __STATIC_FORCEINLINE                   __attribute__((always_inline)) static inline
  51:Drivers/CMSIS/Include/cmsis_gcc.h **** #endif                                           
  52:Drivers/CMSIS/Include/cmsis_gcc.h **** #ifndef   __NO_RETURN
  53:Drivers/CMSIS/Include/cmsis_gcc.h ****   #define __NO_RETURN                            __attribute__((__noreturn__))
  54:Drivers/CMSIS/Include/cmsis_gcc.h **** #endif
  55:Drivers/CMSIS/Include/cmsis_gcc.h **** #ifndef   __USED
  56:Drivers/CMSIS/Include/cmsis_gcc.h ****   #define __USED                                 __attribute__((used))
  57:Drivers/CMSIS/Include/cmsis_gcc.h **** #endif
  58:Drivers/CMSIS/Include/cmsis_gcc.h **** #ifndef   __WEAK
  59:Drivers/CMSIS/Include/cmsis_gcc.h ****   #define __WEAK                                 __attribute__((weak))
  60:Drivers/CMSIS/Include/cmsis_gcc.h **** #endif
  61:Drivers/CMSIS/Include/cmsis_gcc.h **** #ifndef   __PACKED
  62:Drivers/CMSIS/Include/cmsis_gcc.h ****   #define __PACKED                               __attribute__((packed, aligned(1)))
  63:Drivers/CMSIS/Include/cmsis_gcc.h **** #endif
  64:Drivers/CMSIS/Include/cmsis_gcc.h **** #ifndef   __PACKED_STRUCT
  65:Drivers/CMSIS/Include/cmsis_gcc.h ****   #define __PACKED_STRUCT                        struct __attribute__((packed, aligned(1)))
  66:Drivers/CMSIS/Include/cmsis_gcc.h **** #endif
  67:Drivers/CMSIS/Include/cmsis_gcc.h **** #ifndef   __PACKED_UNION
  68:Drivers/CMSIS/Include/cmsis_gcc.h ****   #define __PACKED_UNION                         union __attribute__((packed, aligned(1)))
  69:Drivers/CMSIS/Include/cmsis_gcc.h **** #endif
  70:Drivers/CMSIS/Include/cmsis_gcc.h **** #ifndef   __UNALIGNED_UINT32        /* deprecated */
  71:Drivers/CMSIS/Include/cmsis_gcc.h ****   #pragma GCC diagnostic push
  72:Drivers/CMSIS/Include/cmsis_gcc.h ****   #pragma GCC diagnostic ignored "-Wpacked"
  73:Drivers/CMSIS/Include/cmsis_gcc.h ****   #pragma GCC diagnostic ignored "-Wattributes"
  74:Drivers/CMSIS/Include/cmsis_gcc.h ****   struct __attribute__((packed)) T_UINT32 { uint32_t v; };
  75:Drivers/CMSIS/Include/cmsis_gcc.h ****   #pragma GCC diagnostic pop
  76:Drivers/CMSIS/Include/cmsis_gcc.h ****   #define __UNALIGNED_UINT32(x)                  (((struct T_UINT32 *)(x))->v)
  77:Drivers/CMSIS/Include/cmsis_gcc.h **** #endif
  78:Drivers/CMSIS/Include/cmsis_gcc.h **** #ifndef   __UNALIGNED_UINT16_WRITE
  79:Drivers/CMSIS/Include/cmsis_gcc.h ****   #pragma GCC diagnostic push
  80:Drivers/CMSIS/Include/cmsis_gcc.h ****   #pragma GCC diagnostic ignored "-Wpacked"
  81:Drivers/CMSIS/Include/cmsis_gcc.h ****   #pragma GCC diagnostic ignored "-Wattributes"
  82:Drivers/CMSIS/Include/cmsis_gcc.h ****   __PACKED_STRUCT T_UINT16_WRITE { uint16_t v; };
  83:Drivers/CMSIS/Include/cmsis_gcc.h ****   #pragma GCC diagnostic pop
  84:Drivers/CMSIS/Include/cmsis_gcc.h ****   #define __UNALIGNED_UINT16_WRITE(addr, val)    (void)((((struct T_UINT16_WRITE *)(void *)(addr))-
  85:Drivers/CMSIS/Include/cmsis_gcc.h **** #endif
  86:Drivers/CMSIS/Include/cmsis_gcc.h **** #ifndef   __UNALIGNED_UINT16_READ
  87:Drivers/CMSIS/Include/cmsis_gcc.h ****   #pragma GCC diagnostic push
  88:Drivers/CMSIS/Include/cmsis_gcc.h ****   #pragma GCC diagnostic ignored "-Wpacked"
  89:Drivers/CMSIS/Include/cmsis_gcc.h ****   #pragma GCC diagnostic ignored "-Wattributes"
  90:Drivers/CMSIS/Include/cmsis_gcc.h ****   __PACKED_STRUCT T_UINT16_READ { uint16_t v; };
  91:Drivers/CMSIS/Include/cmsis_gcc.h ****   #pragma GCC diagnostic pop
  92:Drivers/CMSIS/Include/cmsis_gcc.h ****   #define __UNALIGNED_UINT16_READ(addr)          (((const struct T_UINT16_READ *)(const void *)(add
  93:Drivers/CMSIS/Include/cmsis_gcc.h **** #endif
  94:Drivers/CMSIS/Include/cmsis_gcc.h **** #ifndef   __UNALIGNED_UINT32_WRITE
  95:Drivers/CMSIS/Include/cmsis_gcc.h ****   #pragma GCC diagnostic push
  96:Drivers/CMSIS/Include/cmsis_gcc.h ****   #pragma GCC diagnostic ignored "-Wpacked"
  97:Drivers/CMSIS/Include/cmsis_gcc.h ****   #pragma GCC diagnostic ignored "-Wattributes"
  98:Drivers/CMSIS/Include/cmsis_gcc.h ****   __PACKED_STRUCT T_UINT32_WRITE { uint32_t v; };
  99:Drivers/CMSIS/Include/cmsis_gcc.h ****   #pragma GCC diagnostic pop
 100:Drivers/CMSIS/Include/cmsis_gcc.h ****   #define __UNALIGNED_UINT32_WRITE(addr, val)    (void)((((struct T_UINT32_WRITE *)(void *)(addr))-
 101:Drivers/CMSIS/Include/cmsis_gcc.h **** #endif
 102:Drivers/CMSIS/Include/cmsis_gcc.h **** #ifndef   __UNALIGNED_UINT32_READ
 103:Drivers/CMSIS/Include/cmsis_gcc.h ****   #pragma GCC diagnostic push
ARM GAS  C:\Users\pc\AppData\Local\Temp\ccOqYPV2.s 			page 13


 104:Drivers/CMSIS/Include/cmsis_gcc.h ****   #pragma GCC diagnostic ignored "-Wpacked"
 105:Drivers/CMSIS/Include/cmsis_gcc.h ****   #pragma GCC diagnostic ignored "-Wattributes"
 106:Drivers/CMSIS/Include/cmsis_gcc.h ****   __PACKED_STRUCT T_UINT32_READ { uint32_t v; };
 107:Drivers/CMSIS/Include/cmsis_gcc.h ****   #pragma GCC diagnostic pop
 108:Drivers/CMSIS/Include/cmsis_gcc.h ****   #define __UNALIGNED_UINT32_READ(addr)          (((const struct T_UINT32_READ *)(const void *)(add
 109:Drivers/CMSIS/Include/cmsis_gcc.h **** #endif
 110:Drivers/CMSIS/Include/cmsis_gcc.h **** #ifndef   __ALIGNED
 111:Drivers/CMSIS/Include/cmsis_gcc.h ****   #define __ALIGNED(x)                           __attribute__((aligned(x)))
 112:Drivers/CMSIS/Include/cmsis_gcc.h **** #endif
 113:Drivers/CMSIS/Include/cmsis_gcc.h **** #ifndef   __RESTRICT
 114:Drivers/CMSIS/Include/cmsis_gcc.h ****   #define __RESTRICT                             __restrict
 115:Drivers/CMSIS/Include/cmsis_gcc.h **** #endif
 116:Drivers/CMSIS/Include/cmsis_gcc.h **** 
 117:Drivers/CMSIS/Include/cmsis_gcc.h **** 
 118:Drivers/CMSIS/Include/cmsis_gcc.h **** /* ###########################  Core Function Access  ########################### */
 119:Drivers/CMSIS/Include/cmsis_gcc.h **** /** \ingroup  CMSIS_Core_FunctionInterface
 120:Drivers/CMSIS/Include/cmsis_gcc.h ****     \defgroup CMSIS_Core_RegAccFunctions CMSIS Core Register Access Functions
 121:Drivers/CMSIS/Include/cmsis_gcc.h ****   @{
 122:Drivers/CMSIS/Include/cmsis_gcc.h ****  */
 123:Drivers/CMSIS/Include/cmsis_gcc.h **** 
 124:Drivers/CMSIS/Include/cmsis_gcc.h **** /**
 125:Drivers/CMSIS/Include/cmsis_gcc.h ****   \brief   Enable IRQ Interrupts
 126:Drivers/CMSIS/Include/cmsis_gcc.h ****   \details Enables IRQ interrupts by clearing the I-bit in the CPSR.
 127:Drivers/CMSIS/Include/cmsis_gcc.h ****            Can only be executed in Privileged modes.
 128:Drivers/CMSIS/Include/cmsis_gcc.h ****  */
 129:Drivers/CMSIS/Include/cmsis_gcc.h **** __STATIC_FORCEINLINE void __enable_irq(void)
 130:Drivers/CMSIS/Include/cmsis_gcc.h **** {
 131:Drivers/CMSIS/Include/cmsis_gcc.h ****   __ASM volatile ("cpsie i" : : : "memory");
 132:Drivers/CMSIS/Include/cmsis_gcc.h **** }
 133:Drivers/CMSIS/Include/cmsis_gcc.h **** 
 134:Drivers/CMSIS/Include/cmsis_gcc.h **** 
 135:Drivers/CMSIS/Include/cmsis_gcc.h **** /**
 136:Drivers/CMSIS/Include/cmsis_gcc.h ****   \brief   Disable IRQ Interrupts
 137:Drivers/CMSIS/Include/cmsis_gcc.h ****   \details Disables IRQ interrupts by setting the I-bit in the CPSR.
 138:Drivers/CMSIS/Include/cmsis_gcc.h ****            Can only be executed in Privileged modes.
 139:Drivers/CMSIS/Include/cmsis_gcc.h ****  */
 140:Drivers/CMSIS/Include/cmsis_gcc.h **** __STATIC_FORCEINLINE void __disable_irq(void)
 261              		.loc 2 140 27 view .LVU61
 262              	.LBB9:
 141:Drivers/CMSIS/Include/cmsis_gcc.h **** {
 142:Drivers/CMSIS/Include/cmsis_gcc.h ****   __ASM volatile ("cpsid i" : : : "memory");
 263              		.loc 2 142 3 view .LVU62
 264              		.syntax unified
 265              	@ 142 "Drivers/CMSIS/Include/cmsis_gcc.h" 1
 266 0000 72B6     		cpsid i
 267              	@ 0 "" 2
 268              		.thumb
 269              		.syntax unified
 270              	.L18:
 271              	.LBE9:
 272              	.LBE8:
 300:Core/Src/main.c ****   while (1)
 273              		.loc 1 300 3 discriminator 1 view .LVU63
 301:Core/Src/main.c ****   {
 302:Core/Src/main.c ****   }
 274              		.loc 1 302 3 discriminator 1 view .LVU64
 300:Core/Src/main.c ****   while (1)
ARM GAS  C:\Users\pc\AppData\Local\Temp\ccOqYPV2.s 			page 14


 275              		.loc 1 300 9 discriminator 1 view .LVU65
 276 0002 FEE7     		b	.L18
 277              		.cfi_endproc
 278              	.LFE136:
 280              		.section	.text.MX_USART1_UART_Init,"ax",%progbits
 281              		.align	1
 282              		.syntax unified
 283              		.thumb
 284              		.thumb_func
 286              	MX_USART1_UART_Init:
 287              	.LFB133:
 198:Core/Src/main.c **** 
 288              		.loc 1 198 1 view -0
 289              		.cfi_startproc
 290              		@ args = 0, pretend = 0, frame = 0
 291              		@ frame_needed = 0, uses_anonymous_args = 0
 292 0000 08B5     		push	{r3, lr}
 293              	.LCFI4:
 294              		.cfi_def_cfa_offset 8
 295              		.cfi_offset 3, -8
 296              		.cfi_offset 14, -4
 207:Core/Src/main.c ****   huart1.Init.BaudRate = 115200;
 297              		.loc 1 207 3 view .LVU67
 207:Core/Src/main.c ****   huart1.Init.BaudRate = 115200;
 298              		.loc 1 207 19 is_stmt 0 view .LVU68
 299 0002 0A48     		ldr	r0, .L23
 300 0004 0A4B     		ldr	r3, .L23+4
 301 0006 0360     		str	r3, [r0]
 208:Core/Src/main.c ****   huart1.Init.WordLength = UART_WORDLENGTH_8B;
 302              		.loc 1 208 3 is_stmt 1 view .LVU69
 208:Core/Src/main.c ****   huart1.Init.WordLength = UART_WORDLENGTH_8B;
 303              		.loc 1 208 24 is_stmt 0 view .LVU70
 304 0008 4FF4E133 		mov	r3, #115200
 305 000c 4360     		str	r3, [r0, #4]
 209:Core/Src/main.c ****   huart1.Init.StopBits = UART_STOPBITS_1;
 306              		.loc 1 209 3 is_stmt 1 view .LVU71
 209:Core/Src/main.c ****   huart1.Init.StopBits = UART_STOPBITS_1;
 307              		.loc 1 209 26 is_stmt 0 view .LVU72
 308 000e 0023     		movs	r3, #0
 309 0010 8360     		str	r3, [r0, #8]
 210:Core/Src/main.c ****   huart1.Init.Parity = UART_PARITY_NONE;
 310              		.loc 1 210 3 is_stmt 1 view .LVU73
 210:Core/Src/main.c ****   huart1.Init.Parity = UART_PARITY_NONE;
 311              		.loc 1 210 24 is_stmt 0 view .LVU74
 312 0012 C360     		str	r3, [r0, #12]
 211:Core/Src/main.c ****   huart1.Init.Mode = UART_MODE_TX_RX;
 313              		.loc 1 211 3 is_stmt 1 view .LVU75
 211:Core/Src/main.c ****   huart1.Init.Mode = UART_MODE_TX_RX;
 314              		.loc 1 211 22 is_stmt 0 view .LVU76
 315 0014 0361     		str	r3, [r0, #16]
 212:Core/Src/main.c ****   huart1.Init.HwFlowCtl = UART_HWCONTROL_NONE;
 316              		.loc 1 212 3 is_stmt 1 view .LVU77
 212:Core/Src/main.c ****   huart1.Init.HwFlowCtl = UART_HWCONTROL_NONE;
 317              		.loc 1 212 20 is_stmt 0 view .LVU78
 318 0016 0C22     		movs	r2, #12
 319 0018 4261     		str	r2, [r0, #20]
 213:Core/Src/main.c ****   huart1.Init.OverSampling = UART_OVERSAMPLING_16;
ARM GAS  C:\Users\pc\AppData\Local\Temp\ccOqYPV2.s 			page 15


 320              		.loc 1 213 3 is_stmt 1 view .LVU79
 213:Core/Src/main.c ****   huart1.Init.OverSampling = UART_OVERSAMPLING_16;
 321              		.loc 1 213 25 is_stmt 0 view .LVU80
 322 001a 8361     		str	r3, [r0, #24]
 214:Core/Src/main.c ****   if (HAL_UART_Init(&huart1) != HAL_OK)
 323              		.loc 1 214 3 is_stmt 1 view .LVU81
 214:Core/Src/main.c ****   if (HAL_UART_Init(&huart1) != HAL_OK)
 324              		.loc 1 214 28 is_stmt 0 view .LVU82
 325 001c C361     		str	r3, [r0, #28]
 215:Core/Src/main.c ****   {
 326              		.loc 1 215 3 is_stmt 1 view .LVU83
 215:Core/Src/main.c ****   {
 327              		.loc 1 215 7 is_stmt 0 view .LVU84
 328 001e FFF7FEFF 		bl	HAL_UART_Init
 329              	.LVL6:
 215:Core/Src/main.c ****   {
 330              		.loc 1 215 6 view .LVU85
 331 0022 00B9     		cbnz	r0, .L22
 223:Core/Src/main.c **** 
 332              		.loc 1 223 1 view .LVU86
 333 0024 08BD     		pop	{r3, pc}
 334              	.L22:
 217:Core/Src/main.c ****   }
 335              		.loc 1 217 5 is_stmt 1 view .LVU87
 336 0026 FFF7FEFF 		bl	Error_Handler
 337              	.LVL7:
 338              	.L24:
 339 002a 00BF     		.align	2
 340              	.L23:
 341 002c 00000000 		.word	huart1
 342 0030 00100140 		.word	1073811456
 343              		.cfi_endproc
 344              	.LFE133:
 346              		.section	.text.MX_USART2_UART_Init,"ax",%progbits
 347              		.align	1
 348              		.syntax unified
 349              		.thumb
 350              		.thumb_func
 352              	MX_USART2_UART_Init:
 353              	.LFB134:
 231:Core/Src/main.c **** 
 354              		.loc 1 231 1 view -0
 355              		.cfi_startproc
 356              		@ args = 0, pretend = 0, frame = 0
 357              		@ frame_needed = 0, uses_anonymous_args = 0
 358 0000 08B5     		push	{r3, lr}
 359              	.LCFI5:
 360              		.cfi_def_cfa_offset 8
 361              		.cfi_offset 3, -8
 362              		.cfi_offset 14, -4
 240:Core/Src/main.c ****   huart2.Init.BaudRate = 115200;
 363              		.loc 1 240 3 view .LVU89
 240:Core/Src/main.c ****   huart2.Init.BaudRate = 115200;
 364              		.loc 1 240 19 is_stmt 0 view .LVU90
 365 0002 0A48     		ldr	r0, .L29
 366 0004 0A4B     		ldr	r3, .L29+4
 367 0006 0360     		str	r3, [r0]
ARM GAS  C:\Users\pc\AppData\Local\Temp\ccOqYPV2.s 			page 16


 241:Core/Src/main.c ****   huart2.Init.WordLength = UART_WORDLENGTH_8B;
 368              		.loc 1 241 3 is_stmt 1 view .LVU91
 241:Core/Src/main.c ****   huart2.Init.WordLength = UART_WORDLENGTH_8B;
 369              		.loc 1 241 24 is_stmt 0 view .LVU92
 370 0008 4FF4E133 		mov	r3, #115200
 371 000c 4360     		str	r3, [r0, #4]
 242:Core/Src/main.c ****   huart2.Init.StopBits = UART_STOPBITS_1;
 372              		.loc 1 242 3 is_stmt 1 view .LVU93
 242:Core/Src/main.c ****   huart2.Init.StopBits = UART_STOPBITS_1;
 373              		.loc 1 242 26 is_stmt 0 view .LVU94
 374 000e 0023     		movs	r3, #0
 375 0010 8360     		str	r3, [r0, #8]
 243:Core/Src/main.c ****   huart2.Init.Parity = UART_PARITY_NONE;
 376              		.loc 1 243 3 is_stmt 1 view .LVU95
 243:Core/Src/main.c ****   huart2.Init.Parity = UART_PARITY_NONE;
 377              		.loc 1 243 24 is_stmt 0 view .LVU96
 378 0012 C360     		str	r3, [r0, #12]
 244:Core/Src/main.c ****   huart2.Init.Mode = UART_MODE_TX_RX;
 379              		.loc 1 244 3 is_stmt 1 view .LVU97
 244:Core/Src/main.c ****   huart2.Init.Mode = UART_MODE_TX_RX;
 380              		.loc 1 244 22 is_stmt 0 view .LVU98
 381 0014 0361     		str	r3, [r0, #16]
 245:Core/Src/main.c ****   huart2.Init.HwFlowCtl = UART_HWCONTROL_NONE;
 382              		.loc 1 245 3 is_stmt 1 view .LVU99
 245:Core/Src/main.c ****   huart2.Init.HwFlowCtl = UART_HWCONTROL_NONE;
 383              		.loc 1 245 20 is_stmt 0 view .LVU100
 384 0016 0C22     		movs	r2, #12
 385 0018 4261     		str	r2, [r0, #20]
 246:Core/Src/main.c ****   huart2.Init.OverSampling = UART_OVERSAMPLING_16;
 386              		.loc 1 246 3 is_stmt 1 view .LVU101
 246:Core/Src/main.c ****   huart2.Init.OverSampling = UART_OVERSAMPLING_16;
 387              		.loc 1 246 25 is_stmt 0 view .LVU102
 388 001a 8361     		str	r3, [r0, #24]
 247:Core/Src/main.c ****   if (HAL_UART_Init(&huart2) != HAL_OK)
 389              		.loc 1 247 3 is_stmt 1 view .LVU103
 247:Core/Src/main.c ****   if (HAL_UART_Init(&huart2) != HAL_OK)
 390              		.loc 1 247 28 is_stmt 0 view .LVU104
 391 001c C361     		str	r3, [r0, #28]
 248:Core/Src/main.c ****   {
 392              		.loc 1 248 3 is_stmt 1 view .LVU105
 248:Core/Src/main.c ****   {
 393              		.loc 1 248 7 is_stmt 0 view .LVU106
 394 001e FFF7FEFF 		bl	HAL_UART_Init
 395              	.LVL8:
 248:Core/Src/main.c ****   {
 396              		.loc 1 248 6 view .LVU107
 397 0022 00B9     		cbnz	r0, .L28
 256:Core/Src/main.c **** 
 398              		.loc 1 256 1 view .LVU108
 399 0024 08BD     		pop	{r3, pc}
 400              	.L28:
 250:Core/Src/main.c ****   }
 401              		.loc 1 250 5 is_stmt 1 view .LVU109
 402 0026 FFF7FEFF 		bl	Error_Handler
 403              	.LVL9:
 404              	.L30:
 405 002a 00BF     		.align	2
ARM GAS  C:\Users\pc\AppData\Local\Temp\ccOqYPV2.s 			page 17


 406              	.L29:
 407 002c 00000000 		.word	huart2
 408 0030 00440040 		.word	1073759232
 409              		.cfi_endproc
 410              	.LFE134:
 412              		.section	.text.SystemClock_Config,"ax",%progbits
 413              		.align	1
 414              		.global	SystemClock_Config
 415              		.syntax unified
 416              		.thumb
 417              		.thumb_func
 419              	SystemClock_Config:
 420              	.LFB132:
 144:Core/Src/main.c ****   RCC_OscInitTypeDef RCC_OscInitStruct = {0};
 421              		.loc 1 144 1 view -0
 422              		.cfi_startproc
 423              		@ args = 0, pretend = 0, frame = 80
 424              		@ frame_needed = 0, uses_anonymous_args = 0
 425 0000 00B5     		push	{lr}
 426              	.LCFI6:
 427              		.cfi_def_cfa_offset 4
 428              		.cfi_offset 14, -4
 429 0002 95B0     		sub	sp, sp, #84
 430              	.LCFI7:
 431              		.cfi_def_cfa_offset 88
 145:Core/Src/main.c ****   RCC_ClkInitTypeDef RCC_ClkInitStruct = {0};
 432              		.loc 1 145 3 view .LVU111
 145:Core/Src/main.c ****   RCC_ClkInitTypeDef RCC_ClkInitStruct = {0};
 433              		.loc 1 145 22 is_stmt 0 view .LVU112
 434 0004 3422     		movs	r2, #52
 435 0006 0021     		movs	r1, #0
 436 0008 07A8     		add	r0, sp, #28
 437 000a FFF7FEFF 		bl	memset
 438              	.LVL10:
 146:Core/Src/main.c **** 
 439              		.loc 1 146 3 is_stmt 1 view .LVU113
 146:Core/Src/main.c **** 
 440              		.loc 1 146 22 is_stmt 0 view .LVU114
 441 000e 0023     		movs	r3, #0
 442 0010 0293     		str	r3, [sp, #8]
 443 0012 0393     		str	r3, [sp, #12]
 444 0014 0493     		str	r3, [sp, #16]
 445 0016 0593     		str	r3, [sp, #20]
 446 0018 0693     		str	r3, [sp, #24]
 150:Core/Src/main.c ****   __HAL_PWR_VOLTAGESCALING_CONFIG(PWR_REGULATOR_VOLTAGE_SCALE1);
 447              		.loc 1 150 3 is_stmt 1 view .LVU115
 448              	.LBB10:
 150:Core/Src/main.c ****   __HAL_PWR_VOLTAGESCALING_CONFIG(PWR_REGULATOR_VOLTAGE_SCALE1);
 449              		.loc 1 150 3 view .LVU116
 450 001a 0093     		str	r3, [sp]
 150:Core/Src/main.c ****   __HAL_PWR_VOLTAGESCALING_CONFIG(PWR_REGULATOR_VOLTAGE_SCALE1);
 451              		.loc 1 150 3 view .LVU117
 452 001c 234A     		ldr	r2, .L39
 453 001e 116C     		ldr	r1, [r2, #64]
 454 0020 41F08051 		orr	r1, r1, #268435456
 455 0024 1164     		str	r1, [r2, #64]
 150:Core/Src/main.c ****   __HAL_PWR_VOLTAGESCALING_CONFIG(PWR_REGULATOR_VOLTAGE_SCALE1);
ARM GAS  C:\Users\pc\AppData\Local\Temp\ccOqYPV2.s 			page 18


 456              		.loc 1 150 3 view .LVU118
 457 0026 126C     		ldr	r2, [r2, #64]
 458 0028 02F08052 		and	r2, r2, #268435456
 459 002c 0092     		str	r2, [sp]
 150:Core/Src/main.c ****   __HAL_PWR_VOLTAGESCALING_CONFIG(PWR_REGULATOR_VOLTAGE_SCALE1);
 460              		.loc 1 150 3 view .LVU119
 461 002e 009A     		ldr	r2, [sp]
 462              	.LBE10:
 150:Core/Src/main.c ****   __HAL_PWR_VOLTAGESCALING_CONFIG(PWR_REGULATOR_VOLTAGE_SCALE1);
 463              		.loc 1 150 3 view .LVU120
 151:Core/Src/main.c **** 
 464              		.loc 1 151 3 view .LVU121
 465              	.LBB11:
 151:Core/Src/main.c **** 
 466              		.loc 1 151 3 view .LVU122
 467 0030 0193     		str	r3, [sp, #4]
 151:Core/Src/main.c **** 
 468              		.loc 1 151 3 view .LVU123
 469 0032 1F4B     		ldr	r3, .L39+4
 470 0034 1A68     		ldr	r2, [r3]
 471 0036 42F44042 		orr	r2, r2, #49152
 472 003a 1A60     		str	r2, [r3]
 151:Core/Src/main.c **** 
 473              		.loc 1 151 3 view .LVU124
 474 003c 1B68     		ldr	r3, [r3]
 475 003e 03F44043 		and	r3, r3, #49152
 476 0042 0193     		str	r3, [sp, #4]
 151:Core/Src/main.c **** 
 477              		.loc 1 151 3 view .LVU125
 478 0044 019B     		ldr	r3, [sp, #4]
 479              	.LBE11:
 151:Core/Src/main.c **** 
 480              		.loc 1 151 3 view .LVU126
 156:Core/Src/main.c ****   RCC_OscInitStruct.HSEState = RCC_HSE_ON;
 481              		.loc 1 156 3 view .LVU127
 156:Core/Src/main.c ****   RCC_OscInitStruct.HSEState = RCC_HSE_ON;
 482              		.loc 1 156 36 is_stmt 0 view .LVU128
 483 0046 0123     		movs	r3, #1
 484 0048 0793     		str	r3, [sp, #28]
 157:Core/Src/main.c ****   RCC_OscInitStruct.PLL.PLLState = RCC_PLL_ON;
 485              		.loc 1 157 3 is_stmt 1 view .LVU129
 157:Core/Src/main.c ****   RCC_OscInitStruct.PLL.PLLState = RCC_PLL_ON;
 486              		.loc 1 157 30 is_stmt 0 view .LVU130
 487 004a 4FF48033 		mov	r3, #65536
 488 004e 0893     		str	r3, [sp, #32]
 158:Core/Src/main.c ****   RCC_OscInitStruct.PLL.PLLSource = RCC_PLLSOURCE_HSE;
 489              		.loc 1 158 3 is_stmt 1 view .LVU131
 158:Core/Src/main.c ****   RCC_OscInitStruct.PLL.PLLSource = RCC_PLLSOURCE_HSE;
 490              		.loc 1 158 34 is_stmt 0 view .LVU132
 491 0050 0223     		movs	r3, #2
 492 0052 0D93     		str	r3, [sp, #52]
 159:Core/Src/main.c ****   RCC_OscInitStruct.PLL.PLLM = 4;
 493              		.loc 1 159 3 is_stmt 1 view .LVU133
 159:Core/Src/main.c ****   RCC_OscInitStruct.PLL.PLLM = 4;
 494              		.loc 1 159 35 is_stmt 0 view .LVU134
 495 0054 4FF48002 		mov	r2, #4194304
 496 0058 0E92     		str	r2, [sp, #56]
ARM GAS  C:\Users\pc\AppData\Local\Temp\ccOqYPV2.s 			page 19


 160:Core/Src/main.c ****   RCC_OscInitStruct.PLL.PLLN = 180;
 497              		.loc 1 160 3 is_stmt 1 view .LVU135
 160:Core/Src/main.c ****   RCC_OscInitStruct.PLL.PLLN = 180;
 498              		.loc 1 160 30 is_stmt 0 view .LVU136
 499 005a 0422     		movs	r2, #4
 500 005c 0F92     		str	r2, [sp, #60]
 161:Core/Src/main.c ****   RCC_OscInitStruct.PLL.PLLP = RCC_PLLP_DIV2;
 501              		.loc 1 161 3 is_stmt 1 view .LVU137
 161:Core/Src/main.c ****   RCC_OscInitStruct.PLL.PLLP = RCC_PLLP_DIV2;
 502              		.loc 1 161 30 is_stmt 0 view .LVU138
 503 005e B422     		movs	r2, #180
 504 0060 1092     		str	r2, [sp, #64]
 162:Core/Src/main.c ****   RCC_OscInitStruct.PLL.PLLQ = 2;
 505              		.loc 1 162 3 is_stmt 1 view .LVU139
 162:Core/Src/main.c ****   RCC_OscInitStruct.PLL.PLLQ = 2;
 506              		.loc 1 162 30 is_stmt 0 view .LVU140
 507 0062 1193     		str	r3, [sp, #68]
 163:Core/Src/main.c ****   RCC_OscInitStruct.PLL.PLLR = 2;
 508              		.loc 1 163 3 is_stmt 1 view .LVU141
 163:Core/Src/main.c ****   RCC_OscInitStruct.PLL.PLLR = 2;
 509              		.loc 1 163 30 is_stmt 0 view .LVU142
 510 0064 1293     		str	r3, [sp, #72]
 164:Core/Src/main.c ****   if (HAL_RCC_OscConfig(&RCC_OscInitStruct) != HAL_OK)
 511              		.loc 1 164 3 is_stmt 1 view .LVU143
 164:Core/Src/main.c ****   if (HAL_RCC_OscConfig(&RCC_OscInitStruct) != HAL_OK)
 512              		.loc 1 164 30 is_stmt 0 view .LVU144
 513 0066 1393     		str	r3, [sp, #76]
 165:Core/Src/main.c ****   {
 514              		.loc 1 165 3 is_stmt 1 view .LVU145
 165:Core/Src/main.c ****   {
 515              		.loc 1 165 7 is_stmt 0 view .LVU146
 516 0068 07A8     		add	r0, sp, #28
 517 006a FFF7FEFF 		bl	HAL_RCC_OscConfig
 518              	.LVL11:
 165:Core/Src/main.c ****   {
 519              		.loc 1 165 6 view .LVU147
 520 006e B0B9     		cbnz	r0, .L36
 172:Core/Src/main.c ****   {
 521              		.loc 1 172 3 is_stmt 1 view .LVU148
 172:Core/Src/main.c ****   {
 522              		.loc 1 172 7 is_stmt 0 view .LVU149
 523 0070 FFF7FEFF 		bl	HAL_PWREx_EnableOverDrive
 524              	.LVL12:
 172:Core/Src/main.c ****   {
 525              		.loc 1 172 6 view .LVU150
 526 0074 A8B9     		cbnz	r0, .L37
 179:Core/Src/main.c ****                               |RCC_CLOCKTYPE_PCLK1|RCC_CLOCKTYPE_PCLK2;
 527              		.loc 1 179 3 is_stmt 1 view .LVU151
 179:Core/Src/main.c ****                               |RCC_CLOCKTYPE_PCLK1|RCC_CLOCKTYPE_PCLK2;
 528              		.loc 1 179 31 is_stmt 0 view .LVU152
 529 0076 0F23     		movs	r3, #15
 530 0078 0293     		str	r3, [sp, #8]
 181:Core/Src/main.c ****   RCC_ClkInitStruct.AHBCLKDivider = RCC_SYSCLK_DIV1;
 531              		.loc 1 181 3 is_stmt 1 view .LVU153
 181:Core/Src/main.c ****   RCC_ClkInitStruct.AHBCLKDivider = RCC_SYSCLK_DIV1;
 532              		.loc 1 181 34 is_stmt 0 view .LVU154
 533 007a 0223     		movs	r3, #2
ARM GAS  C:\Users\pc\AppData\Local\Temp\ccOqYPV2.s 			page 20


 534 007c 0393     		str	r3, [sp, #12]
 182:Core/Src/main.c ****   RCC_ClkInitStruct.APB1CLKDivider = RCC_HCLK_DIV4;
 535              		.loc 1 182 3 is_stmt 1 view .LVU155
 182:Core/Src/main.c ****   RCC_ClkInitStruct.APB1CLKDivider = RCC_HCLK_DIV4;
 536              		.loc 1 182 35 is_stmt 0 view .LVU156
 537 007e 0023     		movs	r3, #0
 538 0080 0493     		str	r3, [sp, #16]
 183:Core/Src/main.c ****   RCC_ClkInitStruct.APB2CLKDivider = RCC_HCLK_DIV2;
 539              		.loc 1 183 3 is_stmt 1 view .LVU157
 183:Core/Src/main.c ****   RCC_ClkInitStruct.APB2CLKDivider = RCC_HCLK_DIV2;
 540              		.loc 1 183 36 is_stmt 0 view .LVU158
 541 0082 4FF4A053 		mov	r3, #5120
 542 0086 0593     		str	r3, [sp, #20]
 184:Core/Src/main.c **** 
 543              		.loc 1 184 3 is_stmt 1 view .LVU159
 184:Core/Src/main.c **** 
 544              		.loc 1 184 36 is_stmt 0 view .LVU160
 545 0088 4FF48053 		mov	r3, #4096
 546 008c 0693     		str	r3, [sp, #24]
 186:Core/Src/main.c ****   {
 547              		.loc 1 186 3 is_stmt 1 view .LVU161
 186:Core/Src/main.c ****   {
 548              		.loc 1 186 7 is_stmt 0 view .LVU162
 549 008e 0521     		movs	r1, #5
 550 0090 02A8     		add	r0, sp, #8
 551 0092 FFF7FEFF 		bl	HAL_RCC_ClockConfig
 552              	.LVL13:
 186:Core/Src/main.c ****   {
 553              		.loc 1 186 6 view .LVU163
 554 0096 30B9     		cbnz	r0, .L38
 190:Core/Src/main.c **** 
 555              		.loc 1 190 1 view .LVU164
 556 0098 15B0     		add	sp, sp, #84
 557              	.LCFI8:
 558              		.cfi_remember_state
 559              		.cfi_def_cfa_offset 4
 560              		@ sp needed
 561 009a 5DF804FB 		ldr	pc, [sp], #4
 562              	.L36:
 563              	.LCFI9:
 564              		.cfi_restore_state
 167:Core/Src/main.c ****   }
 565              		.loc 1 167 5 is_stmt 1 view .LVU165
 566 009e FFF7FEFF 		bl	Error_Handler
 567              	.LVL14:
 568              	.L37:
 174:Core/Src/main.c ****   }
 569              		.loc 1 174 5 view .LVU166
 570 00a2 FFF7FEFF 		bl	Error_Handler
 571              	.LVL15:
 572              	.L38:
 188:Core/Src/main.c ****   }
 573              		.loc 1 188 5 view .LVU167
 574 00a6 FFF7FEFF 		bl	Error_Handler
 575              	.LVL16:
 576              	.L40:
 577 00aa 00BF     		.align	2
ARM GAS  C:\Users\pc\AppData\Local\Temp\ccOqYPV2.s 			page 21


 578              	.L39:
 579 00ac 00380240 		.word	1073887232
 580 00b0 00700040 		.word	1073770496
 581              		.cfi_endproc
 582              	.LFE132:
 584              		.section	.text.main,"ax",%progbits
 585              		.align	1
 586              		.global	main
 587              		.syntax unified
 588              		.thumb
 589              		.thumb_func
 591              	main:
 592              	.LFB131:
  97:Core/Src/main.c ****   /* USER CODE BEGIN 1 */
 593              		.loc 1 97 1 view -0
 594              		.cfi_startproc
 595              		@ Volatile: function does not return.
 596              		@ args = 0, pretend = 0, frame = 0
 597              		@ frame_needed = 0, uses_anonymous_args = 0
 598 0000 08B5     		push	{r3, lr}
 599              	.LCFI10:
 600              		.cfi_def_cfa_offset 8
 601              		.cfi_offset 3, -8
 602              		.cfi_offset 14, -4
 105:Core/Src/main.c **** 
 603              		.loc 1 105 3 view .LVU169
 604 0002 FFF7FEFF 		bl	HAL_Init
 605              	.LVL17:
 112:Core/Src/main.c **** 
 606              		.loc 1 112 3 view .LVU170
 607 0006 FFF7FEFF 		bl	SystemClock_Config
 608              	.LVL18:
 119:Core/Src/main.c ****   MX_USART1_UART_Init();
 609              		.loc 1 119 3 view .LVU171
 610 000a FFF7FEFF 		bl	MX_GPIO_Init
 611              	.LVL19:
 120:Core/Src/main.c ****   MX_USART2_UART_Init();
 612              		.loc 1 120 3 view .LVU172
 613 000e FFF7FEFF 		bl	MX_USART1_UART_Init
 614              	.LVL20:
 121:Core/Src/main.c ****   /* USER CODE BEGIN 2 */
 615              		.loc 1 121 3 view .LVU173
 616 0012 FFF7FEFF 		bl	MX_USART2_UART_Init
 617              	.LVL21:
 128:Core/Src/main.c ****   HAL_UART_Receive_IT(&huart1, (uint8_t*)&RX_buffer[rx_index], sizeof(RX_buffer));
 618              		.loc 1 128 3 view .LVU174
 619 0016 084C     		ldr	r4, .L44
 620 0018 0A23     		movs	r3, #10
 621 001a 1222     		movs	r2, #18
 622 001c 0749     		ldr	r1, .L44+4
 623 001e 2046     		mov	r0, r4
 624 0020 FFF7FEFF 		bl	HAL_UART_Transmit
 625              	.LVL22:
 129:Core/Src/main.c ****   while (1)
 626              		.loc 1 129 3 view .LVU175
 129:Core/Src/main.c ****   while (1)
 627              		.loc 1 129 52 is_stmt 0 view .LVU176
ARM GAS  C:\Users\pc\AppData\Local\Temp\ccOqYPV2.s 			page 22


 628 0024 064B     		ldr	r3, .L44+8
 629 0026 1978     		ldrb	r1, [r3]	@ zero_extendqisi2
 129:Core/Src/main.c ****   while (1)
 630              		.loc 1 129 3 view .LVU177
 631 0028 8C22     		movs	r2, #140
 632 002a 064B     		ldr	r3, .L44+12
 633 002c 03EB4101 		add	r1, r3, r1, lsl #1
 634 0030 2046     		mov	r0, r4
 635 0032 FFF7FEFF 		bl	HAL_UART_Receive_IT
 636              	.LVL23:
 637              	.L42:
 130:Core/Src/main.c ****   {
 638              		.loc 1 130 3 is_stmt 1 discriminator 1 view .LVU178
 135:Core/Src/main.c ****   /* USER CODE END 3 */
 639              		.loc 1 135 3 discriminator 1 view .LVU179
 130:Core/Src/main.c ****   {
 640              		.loc 1 130 9 discriminator 1 view .LVU180
 641 0036 FEE7     		b	.L42
 642              	.L45:
 643              		.align	2
 644              	.L44:
 645 0038 00000000 		.word	huart1
 646 003c 00000000 		.word	TX_message
 647 0040 00000000 		.word	rx_index
 648 0044 00000000 		.word	RX_buffer
 649              		.cfi_endproc
 650              	.LFE131:
 652              		.global	null
 653              		.section	.bss.null,"aw",%nobits
 656              	null:
 657 0000 00       		.space	1
 658              		.global	Receive_Message
 659              		.section	.bss.Receive_Message,"aw",%nobits
 662              	Receive_Message:
 663 0000 00       		.space	1
 664              		.global	TX_message
 665              		.section	.data.TX_message,"aw"
 666              		.align	2
 669              	TX_message:
 670 0000 48656C6C 		.ascii	"Hello from STM32\012\000"
 670      6F206672 
 670      6F6D2053 
 670      544D3332 
 670      0A00
 671              		.global	rx_index
 672              		.section	.bss.rx_index,"aw",%nobits
 675              	rx_index:
 676 0000 00       		.space	1
 677              		.global	RX_buffer
 678              		.section	.bss.RX_buffer,"aw",%nobits
 679              		.align	2
 682              	RX_buffer:
 683 0000 00000000 		.space	140
 683      00000000 
 683      00000000 
 683      00000000 
 683      00000000 
ARM GAS  C:\Users\pc\AppData\Local\Temp\ccOqYPV2.s 			page 23


 684              		.global	huart2
 685              		.section	.bss.huart2,"aw",%nobits
 686              		.align	2
 689              	huart2:
 690 0000 00000000 		.space	68
 690      00000000 
 690      00000000 
 690      00000000 
 690      00000000 
 691              		.global	huart1
 692              		.section	.bss.huart1,"aw",%nobits
 693              		.align	2
 696              	huart1:
 697 0000 00000000 		.space	68
 697      00000000 
 697      00000000 
 697      00000000 
 697      00000000 
 698              		.text
 699              	.Letext0:
 700              		.file 3 "c:\\program files (x86)\\arm gnu toolchain arm-none-eabi\\12.2 mpacbti-rel1\\arm-none-eab
 701              		.file 4 "c:\\program files (x86)\\arm gnu toolchain arm-none-eabi\\12.2 mpacbti-rel1\\arm-none-eab
 702              		.file 5 "Drivers/CMSIS/Device/ST/STM32F4xx/Include/stm32f446xx.h"
 703              		.file 6 "Drivers/STM32F4xx_HAL_Driver/Inc/stm32f4xx_hal_def.h"
 704              		.file 7 "Drivers/STM32F4xx_HAL_Driver/Inc/stm32f4xx_hal_rcc_ex.h"
 705              		.file 8 "Drivers/STM32F4xx_HAL_Driver/Inc/stm32f4xx_hal_rcc.h"
 706              		.file 9 "Drivers/STM32F4xx_HAL_Driver/Inc/stm32f4xx_hal_gpio.h"
 707              		.file 10 "Drivers/STM32F4xx_HAL_Driver/Inc/stm32f4xx_hal_dma.h"
 708              		.file 11 "Drivers/STM32F4xx_HAL_Driver/Inc/stm32f4xx_hal_uart.h"
 709              		.file 12 "Drivers/STM32F4xx_HAL_Driver/Inc/stm32f4xx_hal_pwr_ex.h"
 710              		.file 13 "Drivers/STM32F4xx_HAL_Driver/Inc/stm32f4xx_hal.h"
 711              		.file 14 "<built-in>"
ARM GAS  C:\Users\pc\AppData\Local\Temp\ccOqYPV2.s 			page 24

